target datalayout = "e-m:e-p270:32:32-p271:32:32-p272:64:64-i64:64-i128:128-f80:128-n8:16:32:64-S128"
target triple = "x86_64-pc-linux-gnu"

%class.Register = type { i32 }
%class.XMMRegister = type { i32 }

@UseAVX = external global i32, align 4

; Function Attrs: mustprogress nounwind uwtable
define linkonce_odr hidden void @_ZN14MacroAssembler5vpxorE11XMMRegisterS0_S0_i(ptr noundef nonnull align 8 dereferenceable(40) %0, i32 %1, i32 %2, i32 %3, i32 noundef %4) #1 comdat align 2 {
  %6 = alloca %class.XMMRegister, align 4
  %7 = alloca %class.XMMRegister, align 4
  %8 = alloca %class.XMMRegister, align 4
  %9 = alloca ptr, align 8
  %10 = alloca i32, align 4
  %11 = alloca %class.XMMRegister, align 4
  %12 = alloca %class.XMMRegister, align 4
  %13 = alloca %class.XMMRegister, align 4
  %14 = alloca %class.XMMRegister, align 4
  %15 = alloca %class.XMMRegister, align 4
  %16 = alloca %class.XMMRegister, align 4
  %17 = getelementptr inbounds %class.XMMRegister, ptr %6, i32 0, i32 0
  store i32 %1, ptr %17, align 4
  %18 = getelementptr inbounds %class.XMMRegister, ptr %7, i32 0, i32 0
  store i32 %2, ptr %18, align 4
  %19 = getelementptr inbounds %class.XMMRegister, ptr %8, i32 0, i32 0
  store i32 %3, ptr %19, align 4
  store ptr %0, ptr %9, align 8
  store i32 %4, ptr %10, align 4
  %20 = load ptr, ptr %9, align 8
  %21 = load i32, ptr @UseAVX, align 4
  %22 = icmp sgt i32 %21, 1
  br i1 %22, label %26, label %23

23:                                               ; preds = %5
  %24 = load i32, ptr %10, align 4
  %25 = icmp slt i32 %24, 1
  br i1 %25, label %26, label %34

26:                                               ; preds = %23, %5
  call void @llvm.memcpy.p0.p0.i64(ptr align 4 %11, ptr align 4 %6, i64 4, i1 false)
  call void @llvm.memcpy.p0.p0.i64(ptr align 4 %12, ptr align 4 %7, i64 4, i1 false)
  call void @llvm.memcpy.p0.p0.i64(ptr align 4 %13, ptr align 4 %8, i64 4, i1 false)
  %27 = load i32, ptr %10, align 4
  %28 = getelementptr inbounds %class.XMMRegister, ptr %11, i32 0, i32 0
  %29 = load i32, ptr %28, align 4
  %30 = getelementptr inbounds %class.XMMRegister, ptr %12, i32 0, i32 0
  %31 = load i32, ptr %30, align 4
  %32 = getelementptr inbounds %class.XMMRegister, ptr %13, i32 0, i32 0
  %33 = load i32, ptr %32, align 4
  call void @_ZN9Assembler5vpxorE11XMMRegisterS0_S0_i(ptr noundef nonnull align 8 dereferenceable(40) %20, i32 %29, i32 %31, i32 %33, i32 noundef %27)
  br label %42

34:                                               ; preds = %23
  call void @llvm.memcpy.p0.p0.i64(ptr align 4 %14, ptr align 4 %6, i64 4, i1 false)
  call void @llvm.memcpy.p0.p0.i64(ptr align 4 %15, ptr align 4 %7, i64 4, i1 false)
  call void @llvm.memcpy.p0.p0.i64(ptr align 4 %16, ptr align 4 %8, i64 4, i1 false)
  %35 = load i32, ptr %10, align 4
  %36 = getelementptr inbounds %class.XMMRegister, ptr %14, i32 0, i32 0
  %37 = load i32, ptr %36, align 4
  %38 = getelementptr inbounds %class.XMMRegister, ptr %15, i32 0, i32 0
  %39 = load i32, ptr %38, align 4
  %40 = getelementptr inbounds %class.XMMRegister, ptr %16, i32 0, i32 0
  %41 = load i32, ptr %40, align 4
  call void @_ZN9Assembler6vxorpdE11XMMRegisterS0_S0_i(ptr noundef nonnull align 8 dereferenceable(40) %20, i32 %37, i32 %39, i32 %41, i32 noundef %35)
  br label %42

42:                                               ; preds = %34, %26
  ret void
}

; Function Attrs: mustprogress nounwind uwtable
define hidden void @_ZN17C2_MacroAssembler21vector_mask_operationEi8Register11XMMRegisterS1_S0_i9BasicTypei(ptr noundef nonnull align 8 dereferenceable(40) %0, i32 noundef %1, i32 %2, i32 %3, i32 %4, i32 %5, i32 noundef %6, i8 noundef zeroext %7, i32 noundef %8) #1 align 2 {
  %10 = alloca %class.Register, align 4
  %11 = alloca %class.XMMRegister, align 4
  %12 = alloca %class.XMMRegister, align 4
  %13 = alloca %class.Register, align 4
  %14 = alloca ptr, align 8
  %15 = alloca i32, align 4
  %16 = alloca i32, align 4
  %17 = alloca i8, align 1
  %18 = alloca i32, align 4
  %19 = alloca i8, align 1
  %20 = alloca %class.XMMRegister, align 4
  %21 = alloca %class.XMMRegister, align 4
  %22 = alloca %class.XMMRegister, align 4
  %23 = alloca %class.XMMRegister, align 4
  %24 = alloca %class.XMMRegister, align 4
  %25 = alloca %class.XMMRegister, align 4
  %26 = alloca %class.Register, align 4
  %27 = alloca %class.XMMRegister, align 4
  %28 = alloca %class.Register, align 4
  %29 = alloca %class.XMMRegister, align 4
  %30 = alloca %class.XMMRegister, align 4
  %31 = alloca %class.XMMRegister, align 4
  %32 = alloca %class.XMMRegister, align 4
  %33 = alloca %class.XMMRegister, align 4
  %34 = alloca %class.XMMRegister, align 4
  %35 = alloca %class.Register, align 4
  %36 = alloca %class.XMMRegister, align 4
  %37 = alloca %class.Register, align 4
  %38 = alloca %class.XMMRegister, align 4
  %39 = alloca %class.Register, align 4
  %40 = alloca %class.XMMRegister, align 4
  %41 = alloca %class.Register, align 4
  %42 = alloca %class.Register, align 4
  %43 = alloca %class.Register, align 4
  %44 = getelementptr inbounds %class.Register, ptr %10, i32 0, i32 0
  store i32 %2, ptr %44, align 4
  %45 = getelementptr inbounds %class.XMMRegister, ptr %11, i32 0, i32 0
  store i32 %3, ptr %45, align 4
  %46 = getelementptr inbounds %class.XMMRegister, ptr %12, i32 0, i32 0
  store i32 %4, ptr %46, align 4
  %47 = getelementptr inbounds %class.Register, ptr %13, i32 0, i32 0
  store i32 %5, ptr %47, align 4
  store ptr %0, ptr %14, align 8
  store i32 %1, ptr %15, align 4
  store i32 %6, ptr %16, align 4
  store i8 %7, ptr %17, align 1
  store i32 %8, ptr %18, align 4
  %48 = load ptr, ptr %14, align 8
  store i8 0, ptr %19, align 1
  %49 = load i8, ptr %17, align 1
  %50 = zext i8 %49 to i32
  switch i32 %50, label %125 [
    i32 4, label %51
    i32 8, label %74
    i32 9, label %83
    i32 10, label %107
    i32 6, label %107
    i32 11, label %116
    i32 7, label %116
  ]

51:                                               ; preds = %9
  call void @llvm.memcpy.p0.p0.i64(ptr align 4 %20, ptr align 4 %12, i64 4, i1 false)
  call void @llvm.memcpy.p0.p0.i64(ptr align 4 %21, ptr align 4 %12, i64 4, i1 false)
  call void @llvm.memcpy.p0.p0.i64(ptr align 4 %22, ptr align 4 %12, i64 4, i1 false)
  %52 = load i32, ptr %18, align 4
  %53 = getelementptr inbounds %class.XMMRegister, ptr %20, i32 0, i32 0
  %54 = load i32, ptr %53, align 4
  %55 = getelementptr inbounds %class.XMMRegister, ptr %21, i32 0, i32 0
  %56 = load i32, ptr %55, align 4
  %57 = getelementptr inbounds %class.XMMRegister, ptr %22, i32 0, i32 0
  %58 = load i32, ptr %57, align 4
  call void @_ZN14MacroAssembler5vpxorE11XMMRegisterS0_S0_i(ptr noundef nonnull align 8 dereferenceable(40) %48, i32 %54, i32 %56, i32 %58, i32 noundef %52)
  call void @llvm.memcpy.p0.p0.i64(ptr align 4 %23, ptr align 4 %12, i64 4, i1 false)
  call void @llvm.memcpy.p0.p0.i64(ptr align 4 %24, ptr align 4 %12, i64 4, i1 false)
  call void @llvm.memcpy.p0.p0.i64(ptr align 4 %25, ptr align 4 %11, i64 4, i1 false)
  %59 = load i32, ptr %18, align 4
  %60 = getelementptr inbounds %class.XMMRegister, ptr %23, i32 0, i32 0
  %61 = load i32, ptr %60, align 4
  %62 = getelementptr inbounds %class.XMMRegister, ptr %24, i32 0, i32 0
  %63 = load i32, ptr %62, align 4
  %64 = getelementptr inbounds %class.XMMRegister, ptr %25, i32 0, i32 0
  %65 = load i32, ptr %64, align 4
  call void @_ZN14MacroAssembler6vpsubbE11XMMRegisterS0_S0_i(ptr noundef nonnull align 8 dereferenceable(40) %48, i32 %61, i32 %63, i32 %65, i32 noundef %59)
  call void @llvm.memcpy.p0.p0.i64(ptr align 4 %26, ptr align 4 %13, i64 4, i1 false)
  call void @llvm.memcpy.p0.p0.i64(ptr align 4 %27, ptr align 4 %12, i64 4, i1 false)
  %66 = load i32, ptr %18, align 4
  %67 = getelementptr inbounds %class.Register, ptr %26, i32 0, i32 0
  %68 = load i32, ptr %67, align 4
  %69 = getelementptr inbounds %class.XMMRegister, ptr %27, i32 0, i32 0
  %70 = load i32, ptr %69, align 4
  call void @_ZN14MacroAssembler9vpmovmskbE8Register11XMMRegisteri(ptr noundef nonnull align 8 dereferenceable(40) %48, i32 %68, i32 %70, i32 noundef %66)
  %71 = load i32, ptr %16, align 4
  %72 = icmp slt i32 %71, 16
  %73 = zext i1 %72 to i8
  store i8 %73, ptr %19, align 1
  br label %126

74:                                               ; preds = %9
  call void @llvm.memcpy.p0.p0.i64(ptr align 4 %28, ptr align 4 %13, i64 4, i1 false)
  call void @llvm.memcpy.p0.p0.i64(ptr align 4 %29, ptr align 4 %11, i64 4, i1 false)
  %75 = load i32, ptr %18, align 4
  %76 = getelementptr inbounds %class.Register, ptr %28, i32 0, i32 0
  %77 = load i32, ptr %76, align 4
  %78 = getelementptr inbounds %class.XMMRegister, ptr %29, i32 0, i32 0
  %79 = load i32, ptr %78, align 4
  call void @_ZN14MacroAssembler9vpmovmskbE8Register11XMMRegisteri(ptr noundef nonnull align 8 dereferenceable(40) %48, i32 %77, i32 %79, i32 noundef %75)
  %80 = load i32, ptr %16, align 4
  %81 = icmp slt i32 %80, 16
  %82 = zext i1 %81 to i8
  store i8 %82, ptr %19, align 1
  br label %126

83:                                               ; preds = %9
  call void @llvm.memcpy.p0.p0.i64(ptr align 4 %30, ptr align 4 %12, i64 4, i1 false)
  call void @llvm.memcpy.p0.p0.i64(ptr align 4 %31, ptr align 4 %11, i64 4, i1 false)
  call void @llvm.memcpy.p0.p0.i64(ptr align 4 %32, ptr align 4 %11, i64 4, i1 false)
  %84 = load i32, ptr %18, align 4
  %85 = getelementptr inbounds %class.XMMRegister, ptr %30, i32 0, i32 0
  %86 = load i32, ptr %85, align 4
  %87 = getelementptr inbounds %class.XMMRegister, ptr %31, i32 0, i32 0
  %88 = load i32, ptr %87, align 4
  %89 = getelementptr inbounds %class.XMMRegister, ptr %32, i32 0, i32 0
  %90 = load i32, ptr %89, align 4
  call void @_ZN9Assembler9vpacksswbE11XMMRegisterS0_S0_i(ptr noundef nonnull align 8 dereferenceable(40) %48, i32 %86, i32 %88, i32 %90, i32 noundef %84)
  %91 = load i32, ptr %16, align 4
  %92 = icmp sge i32 %91, 16
  br i1 %92, label %93, label %99

93:                                               ; preds = %83
  call void @llvm.memcpy.p0.p0.i64(ptr align 4 %33, ptr align 4 %12, i64 4, i1 false)
  call void @llvm.memcpy.p0.p0.i64(ptr align 4 %34, ptr align 4 %12, i64 4, i1 false)
  %94 = load i32, ptr %18, align 4
  %95 = getelementptr inbounds %class.XMMRegister, ptr %33, i32 0, i32 0
  %96 = load i32, ptr %95, align 4
  %97 = getelementptr inbounds %class.XMMRegister, ptr %34, i32 0, i32 0
  %98 = load i32, ptr %97, align 4
  call void @_ZN9Assembler7vpermpdE11XMMRegisterS0_ii(ptr noundef nonnull align 8 dereferenceable(40) %48, i32 %96, i32 %98, i32 noundef 8, i32 noundef %94)
  br label %99

99:                                               ; preds = %93, %83
  call void @llvm.memcpy.p0.p0.i64(ptr align 4 %35, ptr align 4 %13, i64 4, i1 false)
  call void @llvm.memcpy.p0.p0.i64(ptr align 4 %36, ptr align 4 %12, i64 4, i1 false)
  %100 = getelementptr inbounds %class.Register, ptr %35, i32 0, i32 0
  %101 = load i32, ptr %100, align 4
  %102 = getelementptr inbounds %class.XMMRegister, ptr %36, i32 0, i32 0
  %103 = load i32, ptr %102, align 4
  call void @_ZN14MacroAssembler9vpmovmskbE8Register11XMMRegisteri(ptr noundef nonnull align 8 dereferenceable(40) %48, i32 %101, i32 %103, i32 noundef 0)
  %104 = load i32, ptr %16, align 4
  %105 = icmp slt i32 %104, 16
  %106 = zext i1 %105 to i8
  store i8 %106, ptr %19, align 1
  br label %126

107:                                              ; preds = %9, %9
  call void @llvm.memcpy.p0.p0.i64(ptr align 4 %37, ptr align 4 %13, i64 4, i1 false)
  call void @llvm.memcpy.p0.p0.i64(ptr align 4 %38, ptr align 4 %11, i64 4, i1 false)
  %108 = load i32, ptr %18, align 4
  %109 = getelementptr inbounds %class.Register, ptr %37, i32 0, i32 0
  %110 = load i32, ptr %109, align 4
  %111 = getelementptr inbounds %class.XMMRegister, ptr %38, i32 0, i32 0
  %112 = load i32, ptr %111, align 4
  call void @_ZN9Assembler9vmovmskpsE8Register11XMMRegisteri(ptr noundef nonnull align 8 dereferenceable(40) %48, i32 %110, i32 %112, i32 noundef %108)
  %113 = load i32, ptr %16, align 4
  %114 = icmp slt i32 %113, 4
  %115 = zext i1 %114 to i8
  store i8 %115, ptr %19, align 1
  br label %126

116:                                              ; preds = %9, %9
  call void @llvm.memcpy.p0.p0.i64(ptr align 4 %39, ptr align 4 %13, i64 4, i1 false)
  call void @llvm.memcpy.p0.p0.i64(ptr align 4 %40, ptr align 4 %11, i64 4, i1 false)
  %117 = load i32, ptr %18, align 4
  %118 = getelementptr inbounds %class.Register, ptr %39, i32 0, i32 0
  %119 = load i32, ptr %118, align 4
  %120 = getelementptr inbounds %class.XMMRegister, ptr %40, i32 0, i32 0
  %121 = load i32, ptr %120, align 4
  call void @_ZN9Assembler9vmovmskpdE8Register11XMMRegisteri(ptr noundef nonnull align 8 dereferenceable(40) %48, i32 %119, i32 %121, i32 noundef %117)
  %122 = load i32, ptr %16, align 4
  %123 = icmp slt i32 %122, 2
  %124 = zext i1 %123 to i8
  store i8 %124, ptr %19, align 1
  br label %126

125:                                              ; preds = %9
  br label %126

126:                                              ; preds = %125, %116, %107, %99, %74, %51
  %127 = load i8, ptr %19, align 1
  %128 = trunc i8 %127 to i1
  br i1 %128, label %129, label %138

129:                                              ; preds = %126
  %130 = load i32, ptr %15, align 4
  %131 = icmp ne i32 %130, 439
  br i1 %131, label %132, label %138

132:                                              ; preds = %129
  call void @llvm.memcpy.p0.p0.i64(ptr align 4 %41, ptr align 4 %13, i64 4, i1 false)
  %133 = load i32, ptr %16, align 4
  %134 = shl i32 1, %133
  %135 = sub nsw i32 %134, 1
  %136 = getelementptr inbounds %class.Register, ptr %41, i32 0, i32 0
  %137 = load i32, ptr %136, align 4
  call void @_ZN9Assembler4andqE8Registeri(ptr noundef nonnull align 8 dereferenceable(40) %48, i32 %137, i32 noundef %135)
  br label %138

138:                                              ; preds = %132, %129, %126
  %139 = load i32, ptr %15, align 4
  call void @llvm.memcpy.p0.p0.i64(ptr align 4 %42, ptr align 4 %10, i64 4, i1 false)
  call void @llvm.memcpy.p0.p0.i64(ptr align 4 %43, ptr align 4 %13, i64 4, i1 false)
  %140 = load i32, ptr %16, align 4
  %141 = getelementptr inbounds %class.Register, ptr %42, i32 0, i32 0
  %142 = load i32, ptr %141, align 4
  %143 = getelementptr inbounds %class.Register, ptr %43, i32 0, i32 0
  %144 = load i32, ptr %143, align 4
  call void @_ZN17C2_MacroAssembler28vector_mask_operation_helperEi8RegisterS0_i(ptr noundef nonnull align 8 dereferenceable(40) %48, i32 noundef %139, i32 %142, i32 %144, i32 noundef %140)
  ret void
}