; Function Attrs: mustprogress nounwind uwtable
define hidden void @_ZN17C2_MacroAssembler21vector_mask_operationEi8Register11XMMRegisterS1_S0_i9BasicTypei(ptr noundef nonnull align 8 dereferenceable(40) %0, i32 noundef %1, i32 %2, i32 %3, i32 %4, i32 %5, i32 noundef %6, i8 noundef zeroext %7, i32 noundef %8) local_unnamed_addr #0 align 2 {
  switch i8 %7, label %.thread [
    i8 4, label %10
    i8 8, label %16
    i8 9, label %17
    i8 10, label %21
    i8 6, label %21
    i8 11, label %22
    i8 7, label %22
  ]

10:                                               ; preds = %9
  %11 = load i32, ptr @UseAVX, align 4
  %12 = icmp sgt i32 %11, 1
  %13 = icmp slt i32 %8, 1
  %or.cond.i = or i1 %13, %12
  br i1 %or.cond.i, label %14, label %15

14:                                               ; preds = %10
  tail call void @_ZN9Assembler5vpxorE11XMMRegisterS0_S0_i(ptr noundef nonnull align 8 dereferenceable(40) %0, i32 %4, i32 %4, i32 %4, i32 noundef %8) #11
  br label %_ZN14MacroAssembler5vpxorE11XMMRegisterS0_S0_i.exit

15:                                               ; preds = %10
  tail call void @_ZN9Assembler6vxorpdE11XMMRegisterS0_S0_i(ptr noundef nonnull align 8 dereferenceable(40) %0, i32 %4, i32 %4, i32 %4, i32 noundef %8) #11
  br label %_ZN14MacroAssembler5vpxorE11XMMRegisterS0_S0_i.exit

_ZN14MacroAssembler5vpxorE11XMMRegisterS0_S0_i.exit: ; preds = %14, %15
  tail call void @_ZN14MacroAssembler6vpsubbE11XMMRegisterS0_S0_i(ptr noundef nonnull align 8 dereferenceable(40) %0, i32 %4, i32 %4, i32 %3, i32 noundef %8) #11
  tail call void @_ZN14MacroAssembler9vpmovmskbE8Register11XMMRegisteri(ptr noundef nonnull align 8 dereferenceable(40) %0, i32 %5, i32 %4, i32 noundef %8) #11
  br label %23

16:                                               ; preds = %9
  tail call void @_ZN14MacroAssembler9vpmovmskbE8Register11XMMRegisteri(ptr noundef nonnull align 8 dereferenceable(40) %0, i32 %5, i32 %3, i32 noundef %8) #11
  br label %23

17:                                               ; preds = %9
  tail call void @_ZN9Assembler9vpacksswbE11XMMRegisterS0_S0_i(ptr noundef nonnull align 8 dereferenceable(40) %0, i32 %4, i32 %3, i32 %3, i32 noundef %8) #11
  %18 = icmp sgt i32 %6, 15
  br i1 %18, label %19, label %20

19:                                               ; preds = %17
  tail call void @_ZN9Assembler7vpermpdE11XMMRegisterS0_ii(ptr noundef nonnull align 8 dereferenceable(40) %0, i32 %4, i32 %4, i32 noundef 8, i32 noundef %8) #11
  br label %20

20:                                               ; preds = %19, %17
  tail call void @_ZN14MacroAssembler9vpmovmskbE8Register11XMMRegisteri(ptr noundef nonnull align 8 dereferenceable(40) %0, i32 %5, i32 %4, i32 noundef 0) #11
  br label %23

21:                                               ; preds = %9, %9
  tail call void @_ZN9Assembler9vmovmskpsE8Register11XMMRegisteri(ptr noundef nonnull align 8 dereferenceable(40) %0, i32 %5, i32 %3, i32 noundef %8) #11
  br label %23

22:                                               ; preds = %9, %9
  tail call void @_ZN9Assembler9vmovmskpdE8Register11XMMRegisteri(ptr noundef nonnull align 8 dereferenceable(40) %0, i32 %5, i32 %3, i32 noundef %8) #11
  br label %23

23:                                               ; preds = %22, %21, %20, %16, %_ZN14MacroAssembler5vpxorE11XMMRegisterS0_S0_i.exit
  %.sink = phi i32 [ 2, %22 ], [ 4, %21 ], [ 16, %20 ], [ 16, %16 ], [ 16, %_ZN14MacroAssembler5vpxorE11XMMRegisterS0_S0_i.exit ]
  %24 = icmp sgt i32 %.sink, %6
  %25 = icmp ne i32 %1, 439
  %or.cond = and i1 %25, %24
  br i1 %or.cond, label %26, label %.thread

26:                                               ; preds = %23
  %notmask = shl nsw i32 -1, %6
  %27 = xor i32 %notmask, -1
  tail call void @_ZN9Assembler4andqE8Registeri(ptr noundef nonnull align 8 dereferenceable(40) %0, i32 %5, i32 noundef %27) #11
  br label %.thread

.thread:                                          ; preds = %9, %26, %23
  tail call void @_ZN17C2_MacroAssembler28vector_mask_operation_helperEi8RegisterS0_i(ptr noundef nonnull align 8 dereferenceable(40) %0, i32 noundef %1, i32 %2, i32 %5, i32 noundef %6)
  ret void
}